target datalayout = "e-m:e-p270:32:32-p271:32:32-p272:64:64-i64:64-i128:128-f80:128-n8:16:32:64-S128"
target triple = "x86_64-pc-linux-gnu"

%"class.std::__cxx11::basic_string" = type { %"struct.std::__cxx11::basic_string<char>::_Alloc_hider", i64, %union.anon }
%"struct.std::__cxx11::basic_string<char>::_Alloc_hider" = type { ptr }
%union.anon = type { i64, [8 x i8] }
%"struct.rocksdb::IOStatsContext" = type <{ i64, i64, i64, i64, i64, i64, i64, i64, i64, i64, i64, i64, i64, %"struct.rocksdb::FileIOByTemperature", i8, [7 x i8] }>
%"struct.rocksdb::FileIOByTemperature" = type { i64, i64, i64, i64, i64, i64 }
%"class.rocksdb::FlushJob" = type { ptr, %"class.std::__cxx11::basic_string", %"class.std::__cxx11::basic_string", ptr, ptr, ptr, i64, %"struct.rocksdb::FileOptions", ptr, ptr, ptr, %"class.std::vector.3", i64, i64, ptr, ptr, i32, ptr, ptr, ptr, i8, ptr, ptr, %"struct.rocksdb::TableProperties", i8, i8, i8, %"class.std::__cxx11::list", %"struct.rocksdb::FileMetaData", %"class.rocksdb::autovector", ptr, ptr, i8, i32, %"class.std::shared_ptr.24", ptr, %"class.std::__cxx11::basic_string", ptr, %"class.std::shared_ptr", %"class.std::__cxx11::basic_string", i64 }
%"struct.rocksdb::FileOptions" = type <{ %"struct.rocksdb::EnvOptions", %"struct.rocksdb::IOOptions", i8, i8, [6 x i8] }>
%"struct.rocksdb::EnvOptions" = type { i8, i8, i8, i8, i8, i8, i64, i8, i8, i64, i64, ptr }
%"struct.rocksdb::IOOptions" = type <{ %"class.std::chrono::duration", i8, [3 x i8], i32, i8, [7 x i8], %"class.std::unordered_map", i8, i8, i8, i8, [4 x i8] }>
%"class.std::chrono::duration" = type { i64 }
%"class.std::unordered_map" = type { %"class.std::_Hashtable" }
%"class.std::_Hashtable" = type { ptr, i64, %"struct.std::__detail::_Hash_node_base", i64, %"struct.std::__detail::_Prime_rehash_policy", ptr }
%"struct.std::__detail::_Hash_node_base" = type { ptr }
%"struct.std::__detail::_Prime_rehash_policy" = type { float, i64 }
%"class.std::vector.3" = type { %"struct.std::_Vector_base.4" }
%"struct.std::_Vector_base.4" = type { %"struct.std::_Vector_base<unsigned long, std::allocator<unsigned long>>::_Vector_impl" }
%"struct.std::_Vector_base<unsigned long, std::allocator<unsigned long>>::_Vector_impl" = type { %"struct.std::_Vector_base<unsigned long, std::allocator<unsigned long>>::_Vector_impl_data" }
%"struct.std::_Vector_base<unsigned long, std::allocator<unsigned long>>::_Vector_impl_data" = type { ptr, ptr, ptr }
%"struct.rocksdb::TableProperties" = type { i64, i64, i64, i64, i64, i64, i64, i64, i64, i64, i64, i64, i64, i64, i64, i64, i64, i64, i64, i64, i64, i64, i64, i64, i64, i64, i64, i64, i64, %"class.std::__cxx11::basic_string", %"class.std::__cxx11::basic_string", %"class.std::__cxx11::basic_string", %"class.std::__cxx11::basic_string", %"class.std::__cxx11::basic_string", %"class.std::__cxx11::basic_string", %"class.std::__cxx11::basic_string", %"class.std::__cxx11::basic_string", %"class.std::__cxx11::basic_string", %"class.std::__cxx11::basic_string", %"class.std::__cxx11::basic_string", %"class.std::__cxx11::basic_string", %"class.std::map", %"class.std::map" }
%"class.std::map" = type { %"class.std::_Rb_tree" }
%"class.std::_Rb_tree" = type { %"struct.std::_Rb_tree<std::__cxx11::basic_string<char>, std::pair<const std::__cxx11::basic_string<char>, std::__cxx11::basic_string<char>>, std::_Select1st<std::pair<const std::__cxx11::basic_string<char>, std::__cxx11::basic_string<char>>>, std::less<std::__cxx11::basic_string<char>>>::_Rb_tree_impl" }
%"struct.std::_Rb_tree<std::__cxx11::basic_string<char>, std::pair<const std::__cxx11::basic_string<char>, std::__cxx11::basic_string<char>>, std::_Select1st<std::pair<const std::__cxx11::basic_string<char>, std::__cxx11::basic_string<char>>>, std::less<std::__cxx11::basic_string<char>>>::_Rb_tree_impl" = type { [8 x i8], %"struct.std::_Rb_tree_header" }
%"struct.std::_Rb_tree_header" = type { %"struct.std::_Rb_tree_node_base", i64 }
%"struct.std::_Rb_tree_node_base" = type { i32, ptr, ptr, ptr }
%"class.std::__cxx11::list" = type { %"class.std::__cxx11::_List_base" }
%"class.std::__cxx11::_List_base" = type { %"struct.std::__cxx11::_List_base<std::unique_ptr<rocksdb::FlushJobInfo>, std::allocator<std::unique_ptr<rocksdb::FlushJobInfo>>>::_List_impl" }
%"struct.std::__cxx11::_List_base<std::unique_ptr<rocksdb::FlushJobInfo>, std::allocator<std::unique_ptr<rocksdb::FlushJobInfo>>>::_List_impl" = type { %"struct.std::__detail::_List_node_header" }
%"struct.std::__detail::_List_node_header" = type { %"struct.std::__detail::_List_node_base", i64 }
%"struct.std::__detail::_List_node_base" = type { ptr, ptr }
%"struct.rocksdb::FileMetaData" = type <{ %"struct.rocksdb::FileDescriptor", %"class.rocksdb::InternalKey", %"class.rocksdb::InternalKey", ptr, %"struct.rocksdb::FileSampledStats", i64, i64, i64, i64, i64, i64, i64, i32, i8, i8, i8, i8, i64, i64, i64, i64, %"class.std::__cxx11::basic_string", %"class.std::__cxx11::basic_string", %"struct.std::array", i64, i8, [7 x i8] }>
%"struct.rocksdb::FileDescriptor" = type { ptr, i64, i64, i64, i64 }
%"class.rocksdb::InternalKey" = type { %"class.std::__cxx11::basic_string" }
%"struct.rocksdb::FileSampledStats" = type { %"struct.std::atomic" }
%"struct.std::atomic" = type { %"struct.std::__atomic_base" }
%"struct.std::__atomic_base" = type { i64 }
%"struct.std::array" = type { [2 x i64] }
%"class.rocksdb::autovector" = type { i64, [64 x i8], ptr, %"class.std::vector.19" }
%"class.std::vector.19" = type { %"struct.std::_Vector_base.20" }
%"struct.std::_Vector_base.20" = type { %"struct.std::_Vector_base<rocksdb::ReadOnlyMemTable *, std::allocator<rocksdb::ReadOnlyMemTable *>>::_Vector_impl" }
%"struct.std::_Vector_base<rocksdb::ReadOnlyMemTable *, std::allocator<rocksdb::ReadOnlyMemTable *>>::_Vector_impl" = type { %"struct.std::_Vector_base<rocksdb::ReadOnlyMemTable *, std::allocator<rocksdb::ReadOnlyMemTable *>>::_Vector_impl_data" }
%"struct.std::_Vector_base<rocksdb::ReadOnlyMemTable *, std::allocator<rocksdb::ReadOnlyMemTable *>>::_Vector_impl_data" = type { ptr, ptr, ptr }
%"class.std::shared_ptr.24" = type { %"class.std::__shared_ptr.25" }
%"class.std::__shared_ptr.25" = type { ptr, %"class.std::__shared_count" }
%"class.std::__shared_count" = type { ptr }
%"class.std::shared_ptr" = type { %"class.std::__shared_ptr" }
%"class.std::__shared_ptr" = type { ptr, %"class.std::__shared_count" }
%"struct.rocksdb::ImmutableDBOptions" = type { i8, i8, i8, i8, i8, i8, i8, i8, i8, ptr, %"class.std::shared_ptr.27", %"class.std::shared_ptr.30", %"class.std::shared_ptr.33", i8, i32, %"class.std::shared_ptr.36", i8, %"class.std::vector.39", %"class.std::__cxx11::basic_string", %"class.std::__cxx11::basic_string", i64, i64, i64, i64, i64, i32, i64, i64, i64, i64, i8, i8, i8, i8, i8, i8, i8, i64, %"class.std::shared_ptr.44", i8, %"class.std::vector.47", i8, i8, i8, i8, i8, i64, i64, i8, i8, i8, i8, %"class.std::shared_ptr.52", ptr, i8, i8, i8, i8, i8, i8, i8, i8, i8, i8, i8, i8, i8, i8, i64, %"class.std::shared_ptr.55", i8, i32, i64, i8, %"class.std::__cxx11::basic_string", %"class.rocksdb::SmallEnumSet", i8, %"class.std::shared_ptr.58", i8, i64, i64, i64, i8, i8, %"class.std::shared_ptr.61", ptr, ptr, ptr }
%"class.std::shared_ptr.27" = type { %"class.std::__shared_ptr.28" }
%"class.std::__shared_ptr.28" = type { ptr, %"class.std::__shared_count" }
%"class.std::shared_ptr.30" = type { %"class.std::__shared_ptr.31" }
%"class.std::__shared_ptr.31" = type { ptr, %"class.std::__shared_count" }
%"class.std::shared_ptr.33" = type { %"class.std::__shared_ptr.34" }
%"class.std::__shared_ptr.34" = type { ptr, %"class.std::__shared_count" }
%"class.std::shared_ptr.36" = type { %"class.std::__shared_ptr.37" }
%"class.std::__shared_ptr.37" = type { ptr, %"class.std::__shared_count" }
%"class.std::vector.39" = type { %"struct.std::_Vector_base.40" }
%"struct.std::_Vector_base.40" = type { %"struct.std::_Vector_base<rocksdb::DbPath, std::allocator<rocksdb::DbPath>>::_Vector_impl" }
%"struct.std::_Vector_base<rocksdb::DbPath, std::allocator<rocksdb::DbPath>>::_Vector_impl" = type { %"struct.std::_Vector_base<rocksdb::DbPath, std::allocator<rocksdb::DbPath>>::_Vector_impl_data" }
%"struct.std::_Vector_base<rocksdb::DbPath, std::allocator<rocksdb::DbPath>>::_Vector_impl_data" = type { ptr, ptr, ptr }
%"class.std::shared_ptr.44" = type { %"class.std::__shared_ptr.45" }
%"class.std::__shared_ptr.45" = type { ptr, %"class.std::__shared_count" }
%"class.std::vector.47" = type { %"struct.std::_Vector_base.48" }
%"struct.std::_Vector_base.48" = type { %"struct.std::_Vector_base<std::shared_ptr<rocksdb::EventListener>, std::allocator<std::shared_ptr<rocksdb::EventListener>>>::_Vector_impl" }
%"struct.std::_Vector_base<std::shared_ptr<rocksdb::EventListener>, std::allocator<std::shared_ptr<rocksdb::EventListener>>>::_Vector_impl" = type { %"struct.std::_Vector_base<std::shared_ptr<rocksdb::EventListener>, std::allocator<std::shared_ptr<rocksdb::EventListener>>>::_Vector_impl_data" }
%"struct.std::_Vector_base<std::shared_ptr<rocksdb::EventListener>, std::allocator<std::shared_ptr<rocksdb::EventListener>>>::_Vector_impl_data" = type { ptr, ptr, ptr }
%"class.std::shared_ptr.52" = type { %"class.std::__shared_ptr.53" }
%"class.std::__shared_ptr.53" = type { ptr, %"class.std::__shared_count" }
%"class.std::shared_ptr.55" = type { %"class.std::__shared_ptr.56" }
%"class.std::__shared_ptr.56" = type { ptr, %"class.std::__shared_count" }
%"class.rocksdb::SmallEnumSet" = type { i64 }
%"class.std::shared_ptr.58" = type { %"class.std::__shared_ptr.59" }
%"class.std::__shared_ptr.59" = type { ptr, %"class.std::__shared_count" }
%"class.std::shared_ptr.61" = type { %"class.std::__shared_ptr.62" }
%"class.std::__shared_ptr.62" = type { ptr, %"class.std::__shared_count" }
%"struct.rocksdb::JobContext" = type { i32, %"class.std::vector.85", %"class.std::vector.3", %"class.std::vector.90", %"class.std::vector.3", %"class.std::vector.95", %"class.std::vector.3", %"class.std::vector.3", %"class.rocksdb::autovector.100", %"class.std::vector.101", %"class.rocksdb::autovector", %"class.std::vector.106", %"class.rocksdb::autovector.111", i64, i64, i64, i64, i64, i64, i64, i64, i64, %"class.std::unique_ptr" }
%"class.std::vector.85" = type { %"struct.std::_Vector_base.86" }
%"struct.std::_Vector_base.86" = type { %"struct.std::_Vector_base<rocksdb::JobContext::CandidateFileInfo, std::allocator<rocksdb::JobContext::CandidateFileInfo>>::_Vector_impl" }
%"struct.std::_Vector_base<rocksdb::JobContext::CandidateFileInfo, std::allocator<rocksdb::JobContext::CandidateFileInfo>>::_Vector_impl" = type { %"struct.std::_Vector_base<rocksdb::JobContext::CandidateFileInfo, std::allocator<rocksdb::JobContext::CandidateFileInfo>>::_Vector_impl_data" }
%"struct.std::_Vector_base<rocksdb::JobContext::CandidateFileInfo, std::allocator<rocksdb::JobContext::CandidateFileInfo>>::_Vector_impl_data" = type { ptr, ptr, ptr }
%"class.std::vector.90" = type { %"struct.std::_Vector_base.91" }
%"struct.std::_Vector_base.91" = type { %"struct.std::_Vector_base<rocksdb::ObsoleteFileInfo, std::allocator<rocksdb::ObsoleteFileInfo>>::_Vector_impl" }
%"struct.std::_Vector_base<rocksdb::ObsoleteFileInfo, std::allocator<rocksdb::ObsoleteFileInfo>>::_Vector_impl" = type { %"struct.std::_Vector_base<rocksdb::ObsoleteFileInfo, std::allocator<rocksdb::ObsoleteFileInfo>>::_Vector_impl_data" }
%"struct.std::_Vector_base<rocksdb::ObsoleteFileInfo, std::allocator<rocksdb::ObsoleteFileInfo>>::_Vector_impl_data" = type { ptr, ptr, ptr }
%"class.std::vector.95" = type { %"struct.std::_Vector_base.96" }
%"struct.std::_Vector_base.96" = type { %"struct.std::_Vector_base<rocksdb::ObsoleteBlobFileInfo, std::allocator<rocksdb::ObsoleteBlobFileInfo>>::_Vector_impl" }
%"struct.std::_Vector_base<rocksdb::ObsoleteBlobFileInfo, std::allocator<rocksdb::ObsoleteBlobFileInfo>>::_Vector_impl" = type { %"struct.std::_Vector_base<rocksdb::ObsoleteBlobFileInfo, std::allocator<rocksdb::ObsoleteBlobFileInfo>>::_Vector_impl_data" }
%"struct.std::_Vector_base<rocksdb::ObsoleteBlobFileInfo, std::allocator<rocksdb::ObsoleteBlobFileInfo>>::_Vector_impl_data" = type { ptr, ptr, ptr }
%"class.rocksdb::autovector.100" = type { i64, [64 x i8], ptr, %"class.std::vector.3" }
%"class.std::vector.101" = type { %"struct.std::_Vector_base.102" }
%"struct.std::_Vector_base.102" = type { %"struct.std::_Vector_base<std::__cxx11::basic_string<char>, std::allocator<std::__cxx11::basic_string<char>>>::_Vector_impl" }
%"struct.std::_Vector_base<std::__cxx11::basic_string<char>, std::allocator<std::__cxx11::basic_string<char>>>::_Vector_impl" = type { %"struct.std::_Vector_base<std::__cxx11::basic_string<char>, std::allocator<std::__cxx11::basic_string<char>>>::_Vector_impl_data" }
%"struct.std::_Vector_base<std::__cxx11::basic_string<char>, std::allocator<std::__cxx11::basic_string<char>>>::_Vector_impl_data" = type { ptr, ptr, ptr }
%"class.std::vector.106" = type { %"struct.std::_Vector_base.107" }
%"struct.std::_Vector_base.107" = type { %"struct.std::_Vector_base<rocksdb::SuperVersionContext, std::allocator<rocksdb::SuperVersionContext>>::_Vector_impl" }
%"struct.std::_Vector_base<rocksdb::SuperVersionContext, std::allocator<rocksdb::SuperVersionContext>>::_Vector_impl" = type { %"struct.std::_Vector_base<rocksdb::SuperVersionContext, std::allocator<rocksdb::SuperVersionContext>>::_Vector_impl_data" }
%"struct.std::_Vector_base<rocksdb::SuperVersionContext, std::allocator<rocksdb::SuperVersionContext>>::_Vector_impl_data" = type { ptr, ptr, ptr }
%"class.rocksdb::autovector.111" = type { i64, [64 x i8], ptr, %"class.std::vector.112" }
%"class.std::vector.112" = type { %"struct.std::_Vector_base.113" }
%"struct.std::_Vector_base.113" = type { %"struct.std::_Vector_base<rocksdb::log::Writer *, std::allocator<rocksdb::log::Writer *>>::_Vector_impl" }
%"struct.std::_Vector_base<rocksdb::log::Writer *, std::allocator<rocksdb::log::Writer *>>::_Vector_impl" = type { %"struct.std::_Vector_base<rocksdb::log::Writer *, std::allocator<rocksdb::log::Writer *>>::_Vector_impl_data" }
%"struct.std::_Vector_base<rocksdb::log::Writer *, std::allocator<rocksdb::log::Writer *>>::_Vector_impl_data" = type { ptr, ptr, ptr }
%"class.std::unique_ptr" = type { %"struct.std::__uniq_ptr_data" }
%"struct.std::__uniq_ptr_data" = type { %"class.std::__uniq_ptr_impl" }
%"class.std::__uniq_ptr_impl" = type { %"class.std::tuple" }
%"class.std::tuple" = type { %"struct.std::_Tuple_impl" }
%"struct.std::_Tuple_impl" = type { %"struct.std::_Head_base.118" }
%"struct.std::_Head_base.118" = type { ptr }

@_ZN7rocksdb15iostats_contextE = external thread_local global %"struct.rocksdb::IOStatsContext", align 8

; Function Attrs: uwtable
define linkonce_odr hidden noundef ptr @_ZTWN7rocksdb15iostats_contextE() #8 comdat {
  %1 = icmp ne ptr @_ZTHN7rocksdb15iostats_contextE, null
  br i1 %1, label %2, label %3

2:                                                ; preds = %0
  call void @_ZTHN7rocksdb15iostats_contextE()
  br label %3

3:                                                ; preds = %2, %0
  %4 = call align 8 ptr @llvm.threadlocal.address.p0(ptr align 8 @_ZN7rocksdb15iostats_contextE)
  ret ptr %4
}

; Function Attrs: mustprogress uwtable
define void @_ZN7rocksdb8FlushJob18ReportStartedFlushEv(ptr noundef nonnull align 8 dereferenceable(1688) %0) #5 align 2 {
  %2 = alloca ptr, align 8
  store ptr %0, ptr %2, align 8, !tbaa !54
  %3 = load ptr, ptr %2, align 8
  %4 = getelementptr inbounds nuw %"class.rocksdb::FlushJob", ptr %3, i32 0, i32 4
  %5 = load ptr, ptr %4, align 8, !tbaa !188
  %6 = getelementptr inbounds nuw %"struct.rocksdb::ImmutableDBOptions", ptr %5, i32 0, i32 41
  %7 = load i8, ptr %6, align 8, !tbaa !299, !range !179, !noundef !180
  %8 = trunc i8 %7 to i1
  call void @_ZN7rocksdb16ThreadStatusUtil17SetEnableTrackingEb(i1 noundef zeroext %8)
  %9 = getelementptr inbounds nuw %"class.rocksdb::FlushJob", ptr %3, i32 0, i32 3
  %10 = load ptr, ptr %9, align 8, !tbaa !96
  call void @_ZN7rocksdb16ThreadStatusUtil15SetColumnFamilyEPKNS_16ColumnFamilyDataE(ptr noundef %10)
  call void @_ZN7rocksdb16ThreadStatusUtil18SetThreadOperationENS_12ThreadStatus13OperationTypeE(i32 noundef 2)
  %11 = getelementptr inbounds nuw %"class.rocksdb::FlushJob", ptr %3, i32 0, i32 15
  %12 = load ptr, ptr %11, align 8, !tbaa !171
  %13 = getelementptr inbounds nuw %"struct.rocksdb::JobContext", ptr %12, i32 0, i32 0
  %14 = load i32, ptr %13, align 8, !tbaa !300
  %15 = sext i32 %14 to i64
  call void @_ZN7rocksdb16ThreadStatusUtil26SetThreadOperationPropertyEim(i32 noundef 0, i64 noundef %15)
  %16 = call ptr @_ZTWN7rocksdb15iostats_contextE()
  %17 = getelementptr inbounds nuw %"struct.rocksdb::IOStatsContext", ptr %16, i32 0, i32 1
  store i64 0, ptr %17, align 8, !tbaa !340
  ret void
}