; Function Attrs: uwtable
define void @_ZN7rocksdb8FlushJob18ReportStartedFlushEv(ptr noundef nonnull readonly align 8 captures(none) dereferenceable(1688) %0) local_unnamed_addr #5 align 2 {
  %2 = getelementptr inbounds nuw i8, ptr %0, i64 80
  %3 = load ptr, ptr %2, align 8, !tbaa !167
  %4 = getelementptr inbounds nuw i8, ptr %3, i64 336
  %5 = load i8, ptr %4, align 8, !tbaa !215, !range !216, !noundef !217
  %6 = trunc nuw i8 %5 to i1
  tail call void @_ZN7rocksdb16ThreadStatusUtil17SetEnableTrackingEb(i1 noundef zeroext %6)
  %7 = getelementptr inbounds nuw i8, ptr %0, i64 72
  %8 = load ptr, ptr %7, align 8, !tbaa !22
  tail call void @_ZN7rocksdb16ThreadStatusUtil15SetColumnFamilyEPKNS_16ColumnFamilyDataE(ptr noundef %8)
  tail call void @_ZN7rocksdb16ThreadStatusUtil18SetThreadOperationENS_12ThreadStatus13OperationTypeE(i32 noundef 2)
  %9 = getelementptr inbounds nuw i8, ptr %0, i64 320
  %10 = load ptr, ptr %9, align 8, !tbaa !135
  %11 = load i32, ptr %10, align 8, !tbaa !218
  %12 = sext i32 %11 to i64
  tail call void @_ZN7rocksdb16ThreadStatusUtil26SetThreadOperationPropertyEim(i32 noundef 0, i64 noundef %12)
  %.not.i = icmp eq ptr @_ZTHN7rocksdb15iostats_contextE, null
  br i1 %.not.i, label %_ZTWN7rocksdb15iostats_contextE.exit, label %13

13:                                               ; preds = %1
  tail call void @_ZTHN7rocksdb15iostats_contextE()
  br label %_ZTWN7rocksdb15iostats_contextE.exit

_ZTWN7rocksdb15iostats_contextE.exit:             ; preds = %1, %13
  %14 = tail call noundef align 8 ptr @llvm.threadlocal.address.p0(ptr align 8 @_ZN7rocksdb15iostats_contextE)
  %15 = getelementptr inbounds nuw i8, ptr %14, i64 8
  store i64 0, ptr %15, align 8, !tbaa !258
  ret void
}